target datalayout = "e-m:e-p270:32:32-p271:32:32-p272:64:64-i64:64-i128:128-f80:128-n8:16:32:64-S128"
target triple = "x86_64-unknown-linux-gnu"

%struct.SXNET_st = type { ptr, ptr }
%struct.SXNET_ID_st = type { ptr, ptr }

@.str.7 = private unnamed_addr constant [24 x i8] c"%*sVersion: %ld (0x%lX)\00", align 1
@.str.8 = private unnamed_addr constant [1 x i8] zeroinitializer, align 1
@.str.9 = private unnamed_addr constant [21 x i8] c"\0A%*sZone: %s, User: \00", align 1

; Function Attrs: nounwind uwtable
define internal i32 @sxnet_i2r(ptr noundef %method, ptr noundef %sx, ptr noundef %out, i32 noundef %indent) #0 {
entry:
  %method.addr = alloca ptr, align 8
  %sx.addr = alloca ptr, align 8
  %out.addr = alloca ptr, align 8
  %indent.addr = alloca i32, align 4
  %v = alloca i64, align 8
  %tmp = alloca ptr, align 8
  %id = alloca ptr, align 8
  %i = alloca i64, align 8
  store ptr %method, ptr %method.addr, align 8
  store ptr %sx, ptr %sx.addr, align 8
  store ptr %out, ptr %out.addr, align 8
  store i32 %indent, ptr %indent.addr, align 4
  %0 = load ptr, ptr %sx.addr, align 8
  %version = getelementptr inbounds %struct.SXNET_st, ptr %0, i32 0, i32 0
  %1 = load ptr, ptr %version, align 8
  %call = call i64 @ASN1_INTEGER_get(ptr noundef %1)
  store i64 %call, ptr %v, align 8
  %2 = load ptr, ptr %out.addr, align 8
  %3 = load i32, ptr %indent.addr, align 4
  %4 = load i64, ptr %v, align 8
  %add = add nsw i64 %4, 1
  %5 = load i64, ptr %v, align 8
  %call1 = call i32 (ptr, ptr, ...) @BIO_printf(ptr noundef %2, ptr noundef @.str.7, i32 noundef %3, ptr noundef @.str.8, i64 noundef %add, i64 noundef %5)
  store i64 0, ptr %i, align 8
  br label %for.cond

for.cond:                                         ; preds = %for.inc, %entry
  %6 = load i64, ptr %i, align 8
  %7 = load ptr, ptr %sx.addr, align 8
  %ids = getelementptr inbounds %struct.SXNET_st, ptr %7, i32 0, i32 1
  %8 = load ptr, ptr %ids, align 8
  %call2 = call i64 @sk_num(ptr noundef %8)
  %cmp = icmp ult i64 %6, %call2
  br i1 %cmp, label %for.body, label %for.end

for.body:                                         ; preds = %for.cond
  %9 = load ptr, ptr %sx.addr, align 8
  %ids3 = getelementptr inbounds %struct.SXNET_st, ptr %9, i32 0, i32 1
  %10 = load ptr, ptr %ids3, align 8
  %11 = load i64, ptr %i, align 8
  %call4 = call ptr @sk_value(ptr noundef %10, i64 noundef %11)
  store ptr %call4, ptr %id, align 8
  %12 = load ptr, ptr %id, align 8
  %zone = getelementptr inbounds %struct.SXNET_ID_st, ptr %12, i32 0, i32 0
  %13 = load ptr, ptr %zone, align 8
  %call5 = call ptr @i2s_ASN1_INTEGER(ptr noundef null, ptr noundef %13)
  store ptr %call5, ptr %tmp, align 8
  %14 = load ptr, ptr %out.addr, align 8
  %15 = load i32, ptr %indent.addr, align 4
  %16 = load ptr, ptr %tmp, align 8
  %call6 = call i32 (ptr, ptr, ...) @BIO_printf(ptr noundef %14, ptr noundef @.str.9, i32 noundef %15, ptr noundef @.str.8, ptr noundef %16)
  %17 = load ptr, ptr %tmp, align 8
  call void @free(ptr noundef %17) #4
  %18 = load ptr, ptr %out.addr, align 8
  %19 = load ptr, ptr %id, align 8
  %user = getelementptr inbounds %struct.SXNET_ID_st, ptr %19, i32 0, i32 1
  %20 = load ptr, ptr %user, align 8
  %call7 = call i32 @ASN1_STRING_print(ptr noundef %18, ptr noundef %20)
  br label %for.inc

for.inc:                                          ; preds = %for.body
  %21 = load i64, ptr %i, align 8
  %inc = add i64 %21, 1
  store i64 %inc, ptr %i, align 8
  br label %for.cond, !llvm.loop !9

for.end:                                          ; preds = %for.cond
  ret i32 1
}