; Function Attrs: nounwind uwtable
define internal noundef i32 @sxnet_i2r(ptr readnone captures(none) %method, ptr noundef readonly captures(none) %sx, ptr noundef %out, i32 noundef %indent) #0 {
entry:
  %0 = load ptr, ptr %sx, align 8
  %call = tail call i64 @ASN1_INTEGER_get(ptr noundef %0) #4
  %add = add nsw i64 %call, 1
  %call1 = tail call i32 (ptr, ptr, ...) @BIO_printf(ptr noundef %out, ptr noundef nonnull @.str.7, i32 noundef %indent, ptr noundef nonnull @.str.8, i64 noundef %add, i64 noundef %call) #4
  %ids = getelementptr inbounds nuw i8, ptr %sx, i64 8
  %1 = load ptr, ptr %ids, align 8
  %call211 = tail call i64 @sk_num(ptr noundef %1) #4
  %cmp12.not = icmp eq i64 %call211, 0
  br i1 %cmp12.not, label %for.end, label %for.body

for.body:                                         ; preds = %entry, %for.body
  %i.013 = phi i64 [ %inc, %for.body ], [ 0, %entry ]
  %2 = load ptr, ptr %ids, align 8
  %call4 = tail call ptr @sk_value(ptr noundef %2, i64 noundef %i.013) #4
  %3 = load ptr, ptr %call4, align 8
  %call5 = tail call ptr @i2s_ASN1_INTEGER(ptr noundef null, ptr noundef %3) #4
  %call6 = tail call i32 (ptr, ptr, ...) @BIO_printf(ptr noundef %out, ptr noundef nonnull @.str.9, i32 noundef %indent, ptr noundef nonnull @.str.8, ptr noundef %call5) #4
  tail call void @free(ptr noundef %call5) #4
  %user = getelementptr inbounds nuw i8, ptr %call4, i64 8
  %4 = load ptr, ptr %user, align 8
  %call7 = tail call i32 @ASN1_STRING_print(ptr noundef %out, ptr noundef %4) #4
  %inc = add nuw i64 %i.013, 1
  %5 = load ptr, ptr %ids, align 8
  %call2 = tail call i64 @sk_num(ptr noundef %5) #4
  %cmp = icmp ult i64 %inc, %call2
  br i1 %cmp, label %for.body, label %for.end, !llvm.loop !9

for.end:                                          ; preds = %for.body, %entry
  ret i32 1
}